; Function Attrs: mustprogress nounwind uwtable
define internal void @_ZN4node9inspector12_GLOBAL__N_19WsHandler19OnCloseFrameWrittenEP10uv_write_si(ptr noundef %req, i32 %status) #0 align 2 {
entry:
  %0 = ptrtoint ptr %req to i64
  %sub.i.i.i = add i64 %0, -32
  %1 = inttoptr i64 %sub.i.i.i to ptr
  %2 = load ptr, ptr %1, align 8
  %storage.i = getelementptr inbounds i8, ptr %1, i64 8
  %3 = load ptr, ptr %storage.i, align 8
  %tobool.not.i.i.i.i = icmp eq ptr %3, null
  br i1 %tobool.not.i.i.i.i, label %_ZN4node9inspector12_GLOBAL__N_112WriteRequestD2Ev.exit, label %if.then.i.i.i.i

if.then.i.i.i.i:                                  ; preds = %entry
  tail call void @_ZdlPv(ptr noundef nonnull %3) #22
  br label %_ZN4node9inspector12_GLOBAL__N_112WriteRequestD2Ev.exit

_ZN4node9inspector12_GLOBAL__N_112WriteRequestD2Ev.exit: ; preds = %entry, %if.then.i.i.i.i
  tail call void @_ZNSaIcED2Ev(ptr noundef nonnull align 1 dereferenceable(1) %storage.i) #19
  tail call void @_ZdlPv(ptr noundef nonnull %1) #22
  %OnCloseSent = getelementptr inbounds i8, ptr %2, i64 24
  %.unpack = load i64, ptr %OnCloseSent, align 8
  %.elt5 = getelementptr inbounds i8, ptr %2, i64 32
  %.unpack6 = load i64, ptr %.elt5, align 8
  %4 = getelementptr inbounds i8, ptr %2, i64 %.unpack6
  %5 = and i64 %.unpack, 1
  %memptr.isvirtual.not = icmp eq i64 %5, 0
  br i1 %memptr.isvirtual.not, label %memptr.nonvirtual, label %memptr.virtual

memptr.virtual:                                   ; preds = %_ZN4node9inspector12_GLOBAL__N_112WriteRequestD2Ev.exit
  %vtable = load ptr, ptr %4, align 8
  %6 = getelementptr i8, ptr %vtable, i64 %.unpack
  %7 = getelementptr i8, ptr %6, i64 -1
  %memptr.virtualfn = load ptr, ptr %7, align 8, !nosanitize !24
  br label %memptr.end

memptr.nonvirtual:                                ; preds = %_ZN4node9inspector12_GLOBAL__N_112WriteRequestD2Ev.exit
  %memptr.nonvirtualfn = inttoptr i64 %.unpack to ptr
  br label %memptr.end

memptr.end:                                       ; preds = %memptr.nonvirtual, %memptr.virtual
  %8 = phi ptr [ %memptr.virtualfn, %memptr.virtual ], [ %memptr.nonvirtualfn, %memptr.nonvirtual ]
  tail call void %8(ptr noundef nonnull align 8 dereferenceable(57) %4) #19
  ret void
}